; Function Attrs: mustprogress uwtable
define dso_local void @_ZN3net14QuicSpdyStream10OnCanWriteEv(ptr noundef nonnull align 8 dereferenceable(664) %this) unnamed_addr #0 align 2 {
entry:
  tail call void @_ZN3net18ReliableQuicStream10OnCanWriteEv(ptr noundef nonnull align 8 dereferenceable(377) %this)
  %call = tail call noundef zeroext i1 @_ZNK3net18ReliableQuicStream15HasBufferedDataEv(ptr noundef nonnull align 8 dereferenceable(377) %this)
  br i1 %call, label %if.end, label %land.lhs.true

land.lhs.true:                                    ; preds = %entry
  %fin_sent_.i = getelementptr inbounds i8, ptr %this, i64 259
  %0 = load i8, ptr %fin_sent_.i, align 1
  %1 = and i8 %0, 1
  %tobool.i.not = icmp eq i8 %1, 0
  br i1 %tobool.i.not, label %if.end, label %if.then

if.then:                                          ; preds = %land.lhs.true
  %vtable = load ptr, ptr %this, align 8
  %vfn = getelementptr inbounds i8, ptr %vtable, i64 112
  %2 = load ptr, ptr %vfn, align 8
  tail call void %2(ptr noundef nonnull align 8 dereferenceable(664) %this)
  br label %if.end

if.end:                                           ; preds = %if.then, %land.lhs.true, %entry
  ret void
}